target datalayout = "e-m:e-p270:32:32-p271:32:32-p272:64:64-i64:64-i128:128-f80:128-n8:16:32:64-S128"
target triple = "x86_64-pc-linux-gnu"

%"class.icu_77::LocDataParser" = type { ptr, ptr, ptr, i16, ptr, ptr }
%struct.UParseError = type { i32, i32, [16 x i16], [16 x i16] }

; Function Attrs: inlinehint mustprogress nounwind uwtable
define internal noundef signext i8 @_ZL9U_SUCCESS10UErrorCode(i32 noundef %0) #4 {
  %2 = alloca i32, align 4
  store i32 %0, ptr %2, align 4, !tbaa !28
  %3 = load i32, ptr %2, align 4, !tbaa !28
  %4 = icmp sle i32 %3, 0
  %5 = zext i1 %4 to i8
  ret i8 %5
}

; Function Attrs: mustprogress uwtable
define void @_ZN6icu_7713LocDataParser10parseErrorEPKc(ptr noundef nonnull align 8 dereferenceable(48) %0, ptr noundef %1) #2 align 2 {
  %3 = alloca ptr, align 8
  %4 = alloca ptr, align 8
  %5 = alloca ptr, align 8
  %6 = alloca ptr, align 8
  %7 = alloca i32, align 4
  %8 = alloca ptr, align 8
  store ptr %0, ptr %3, align 8, !tbaa !22
  store ptr %1, ptr %4, align 8, !tbaa !48
  %9 = load ptr, ptr %3, align 8
  %10 = getelementptr inbounds nuw %"class.icu_77::LocDataParser", ptr %9, i32 0, i32 0
  %11 = load ptr, ptr %10, align 8, !tbaa !35
  %12 = icmp ne ptr %11, null
  br i1 %12, label %14, label %13

13:                                               ; preds = %2
  br label %134

14:                                               ; preds = %2
  call void @llvm.lifetime.start.p0(i64 8, ptr %5) #14
  %15 = getelementptr inbounds nuw %"class.icu_77::LocDataParser", ptr %9, i32 0, i32 2
  %16 = load ptr, ptr %15, align 8, !tbaa !37
  %17 = getelementptr inbounds i16, ptr %16, i64 -16
  %18 = getelementptr inbounds i16, ptr %17, i64 -1
  store ptr %18, ptr %5, align 8, !tbaa !16
  %19 = load ptr, ptr %5, align 8, !tbaa !16
  %20 = getelementptr inbounds nuw %"class.icu_77::LocDataParser", ptr %9, i32 0, i32 0
  %21 = load ptr, ptr %20, align 8, !tbaa !35
  %22 = icmp ult ptr %19, %21
  br i1 %22, label %23, label %26

23:                                               ; preds = %14
  %24 = getelementptr inbounds nuw %"class.icu_77::LocDataParser", ptr %9, i32 0, i32 0
  %25 = load ptr, ptr %24, align 8, !tbaa !35
  store ptr %25, ptr %5, align 8, !tbaa !16
  br label %26

26:                                               ; preds = %23, %14
  call void @llvm.lifetime.start.p0(i64 8, ptr %6) #14
  %27 = getelementptr inbounds nuw %"class.icu_77::LocDataParser", ptr %9, i32 0, i32 2
  %28 = load ptr, ptr %27, align 8, !tbaa !37
  store ptr %28, ptr %6, align 8, !tbaa !16
  br label %29

29:                                               ; preds = %42, %26
  %30 = load ptr, ptr %6, align 8, !tbaa !16
  %31 = getelementptr inbounds i16, ptr %30, i32 -1
  store ptr %31, ptr %6, align 8, !tbaa !16
  %32 = load ptr, ptr %5, align 8, !tbaa !16
  %33 = icmp uge ptr %31, %32
  br i1 %33, label %35, label %34

34:                                               ; preds = %29
  store i32 2, ptr %7, align 4
  br label %43

35:                                               ; preds = %29
  %36 = load ptr, ptr %6, align 8, !tbaa !16
  %37 = load i16, ptr %36, align 2, !tbaa !34
  %38 = icmp ne i16 %37, 0
  br i1 %38, label %42, label %39

39:                                               ; preds = %35
  %40 = load ptr, ptr %6, align 8, !tbaa !16
  %41 = getelementptr inbounds i16, ptr %40, i64 1
  store ptr %41, ptr %5, align 8, !tbaa !16
  store i32 2, ptr %7, align 4
  br label %43

42:                                               ; preds = %35
  br label %29, !llvm.loop !50

43:                                               ; preds = %39, %34
  call void @llvm.lifetime.end.p0(i64 8, ptr %6) #14
  br label %44

44:                                               ; preds = %43
  call void @llvm.lifetime.start.p0(i64 8, ptr %8) #14
  %45 = getelementptr inbounds nuw %"class.icu_77::LocDataParser", ptr %9, i32 0, i32 2
  %46 = load ptr, ptr %45, align 8, !tbaa !37
  %47 = getelementptr inbounds i16, ptr %46, i64 16
  %48 = getelementptr inbounds i16, ptr %47, i64 -1
  store ptr %48, ptr %8, align 8, !tbaa !16
  %49 = load ptr, ptr %8, align 8, !tbaa !16
  %50 = getelementptr inbounds nuw %"class.icu_77::LocDataParser", ptr %9, i32 0, i32 1
  %51 = load ptr, ptr %50, align 8, !tbaa !36
  %52 = icmp ugt ptr %49, %51
  br i1 %52, label %53, label %56

53:                                               ; preds = %44
  %54 = getelementptr inbounds nuw %"class.icu_77::LocDataParser", ptr %9, i32 0, i32 1
  %55 = load ptr, ptr %54, align 8, !tbaa !36
  store ptr %55, ptr %8, align 8, !tbaa !16
  br label %56

56:                                               ; preds = %53, %44
  %57 = getelementptr inbounds nuw %"class.icu_77::LocDataParser", ptr %9, i32 0, i32 4
  %58 = load ptr, ptr %57, align 8, !tbaa !30
  %59 = getelementptr inbounds nuw %struct.UParseError, ptr %58, i32 0, i32 2
  %60 = getelementptr inbounds [16 x i16], ptr %59, i64 0, i64 0
  %61 = load ptr, ptr %5, align 8, !tbaa !16
  %62 = getelementptr inbounds nuw %"class.icu_77::LocDataParser", ptr %9, i32 0, i32 2
  %63 = load ptr, ptr %62, align 8, !tbaa !37
  %64 = load ptr, ptr %5, align 8, !tbaa !16
  %65 = ptrtoint ptr %63 to i64
  %66 = ptrtoint ptr %64 to i64
  %67 = sub i64 %65, %66
  %68 = sdiv exact i64 %67, 2
  %69 = trunc i64 %68 to i32
  %70 = call ptr @u_strncpy_77(ptr noundef %60, ptr noundef %61, i32 noundef %69)
  %71 = getelementptr inbounds nuw %"class.icu_77::LocDataParser", ptr %9, i32 0, i32 4
  %72 = load ptr, ptr %71, align 8, !tbaa !30
  %73 = getelementptr inbounds nuw %struct.UParseError, ptr %72, i32 0, i32 2
  %74 = getelementptr inbounds nuw %"class.icu_77::LocDataParser", ptr %9, i32 0, i32 2
  %75 = load ptr, ptr %74, align 8, !tbaa !37
  %76 = load ptr, ptr %5, align 8, !tbaa !16
  %77 = ptrtoint ptr %75 to i64
  %78 = ptrtoint ptr %76 to i64
  %79 = sub i64 %77, %78
  %80 = sdiv exact i64 %79, 2
  %81 = getelementptr inbounds [16 x i16], ptr %73, i64 0, i64 %80
  store i16 0, ptr %81, align 2, !tbaa !34
  %82 = getelementptr inbounds nuw %"class.icu_77::LocDataParser", ptr %9, i32 0, i32 4
  %83 = load ptr, ptr %82, align 8, !tbaa !30
  %84 = getelementptr inbounds nuw %struct.UParseError, ptr %83, i32 0, i32 3
  %85 = getelementptr inbounds [16 x i16], ptr %84, i64 0, i64 0
  %86 = getelementptr inbounds nuw %"class.icu_77::LocDataParser", ptr %9, i32 0, i32 2
  %87 = load ptr, ptr %86, align 8, !tbaa !37
  %88 = load ptr, ptr %8, align 8, !tbaa !16
  %89 = getelementptr inbounds nuw %"class.icu_77::LocDataParser", ptr %9, i32 0, i32 2
  %90 = load ptr, ptr %89, align 8, !tbaa !37
  %91 = ptrtoint ptr %88 to i64
  %92 = ptrtoint ptr %90 to i64
  %93 = sub i64 %91, %92
  %94 = sdiv exact i64 %93, 2
  %95 = trunc i64 %94 to i32
  %96 = call ptr @u_strncpy_77(ptr noundef %85, ptr noundef %87, i32 noundef %95)
  %97 = getelementptr inbounds nuw %"class.icu_77::LocDataParser", ptr %9, i32 0, i32 4
  %98 = load ptr, ptr %97, align 8, !tbaa !30
  %99 = getelementptr inbounds nuw %struct.UParseError, ptr %98, i32 0, i32 3
  %100 = load ptr, ptr %8, align 8, !tbaa !16
  %101 = getelementptr inbounds nuw %"class.icu_77::LocDataParser", ptr %9, i32 0, i32 2
  %102 = load ptr, ptr %101, align 8, !tbaa !37
  %103 = ptrtoint ptr %100 to i64
  %104 = ptrtoint ptr %102 to i64
  %105 = sub i64 %103, %104
  %106 = sdiv exact i64 %105, 2
  %107 = getelementptr inbounds [16 x i16], ptr %99, i64 0, i64 %106
  store i16 0, ptr %107, align 2, !tbaa !34
  %108 = getelementptr inbounds nuw %"class.icu_77::LocDataParser", ptr %9, i32 0, i32 2
  %109 = load ptr, ptr %108, align 8, !tbaa !37
  %110 = getelementptr inbounds nuw %"class.icu_77::LocDataParser", ptr %9, i32 0, i32 0
  %111 = load ptr, ptr %110, align 8, !tbaa !35
  %112 = ptrtoint ptr %109 to i64
  %113 = ptrtoint ptr %111 to i64
  %114 = sub i64 %112, %113
  %115 = sdiv exact i64 %114, 2
  %116 = trunc i64 %115 to i32
  %117 = getelementptr inbounds nuw %"class.icu_77::LocDataParser", ptr %9, i32 0, i32 4
  %118 = load ptr, ptr %117, align 8, !tbaa !30
  %119 = getelementptr inbounds nuw %struct.UParseError, ptr %118, i32 0, i32 1
  store i32 %116, ptr %119, align 4, !tbaa !33
  %120 = getelementptr inbounds nuw %"class.icu_77::LocDataParser", ptr %9, i32 0, i32 0
  %121 = load ptr, ptr %120, align 8, !tbaa !35
  call void @uprv_free_77(ptr noundef %121)
  %122 = getelementptr inbounds nuw %"class.icu_77::LocDataParser", ptr %9, i32 0, i32 0
  store ptr null, ptr %122, align 8, !tbaa !35
  %123 = getelementptr inbounds nuw %"class.icu_77::LocDataParser", ptr %9, i32 0, i32 2
  store ptr null, ptr %123, align 8, !tbaa !37
  %124 = getelementptr inbounds nuw %"class.icu_77::LocDataParser", ptr %9, i32 0, i32 1
  store ptr null, ptr %124, align 8, !tbaa !36
  %125 = getelementptr inbounds nuw %"class.icu_77::LocDataParser", ptr %9, i32 0, i32 5
  %126 = load ptr, ptr %125, align 8, !tbaa !24
  %127 = load i32, ptr %126, align 4, !tbaa !28
  %128 = call noundef signext i8 @_ZL9U_SUCCESS10UErrorCode(i32 noundef %127)
  %129 = icmp ne i8 %128, 0
  br i1 %129, label %130, label %133

130:                                              ; preds = %56
  %131 = getelementptr inbounds nuw %"class.icu_77::LocDataParser", ptr %9, i32 0, i32 5
  %132 = load ptr, ptr %131, align 8, !tbaa !24
  store i32 9, ptr %132, align 4, !tbaa !28
  br label %133

133:                                              ; preds = %130, %56
  call void @llvm.lifetime.end.p0(i64 8, ptr %8) #14
  call void @llvm.lifetime.end.p0(i64 8, ptr %5) #14
  br label %134

134:                                              ; preds = %133, %13
  ret void
}