; Function Attrs: mustprogress uwtable
define void @_ZN6icu_7713LocDataParser10parseErrorEPKc(ptr noundef nonnull align 8 captures(none) dereferenceable(48) %0, ptr readnone captures(none) %1) local_unnamed_addr #3 align 2 {
  %3 = load ptr, ptr %0, align 8, !tbaa !27
  %.not = icmp eq ptr %3, null
  br i1 %.not, label %58, label %4

4:                                                ; preds = %2
  %5 = getelementptr inbounds nuw i8, ptr %0, i64 16
  %6 = load ptr, ptr %5, align 8, !tbaa !29
  %7 = getelementptr inbounds i8, ptr %6, i64 -34
  %8 = icmp ult ptr %7, %3
  %spec.select = select i1 %8, ptr %3, ptr %7
  br label %9

9:                                                ; preds = %11, %4
  %.012 = phi ptr [ %6, %4 ], [ %10, %11 ]
  %10 = getelementptr inbounds i8, ptr %.012, i64 -2
  %.not19 = icmp ult ptr %10, %spec.select
  br i1 %.not19, label %13, label %11

11:                                               ; preds = %9
  %12 = load i16, ptr %10, align 2, !tbaa !26
  %.not20 = icmp eq i16 %12, 0
  br i1 %.not20, label %13, label %9, !llvm.loop !51

13:                                               ; preds = %11, %9
  %.1 = phi ptr [ %spec.select, %9 ], [ %.012, %11 ]
  %14 = getelementptr inbounds nuw i8, ptr %6, i64 30
  %15 = getelementptr inbounds nuw i8, ptr %0, i64 8
  %16 = load ptr, ptr %15, align 8, !tbaa !28
  %17 = icmp ugt ptr %14, %16
  %spec.select22 = select i1 %17, ptr %16, ptr %14
  %18 = getelementptr inbounds nuw i8, ptr %0, i64 32
  %19 = load ptr, ptr %18, align 8, !tbaa !21
  %20 = getelementptr inbounds nuw i8, ptr %19, i64 8
  %21 = ptrtoint ptr %6 to i64
  %22 = ptrtoint ptr %.1 to i64
  %23 = sub i64 %21, %22
  %24 = lshr exact i64 %23, 1
  %25 = trunc i64 %24 to i32
  %26 = tail call ptr @u_strncpy_77(ptr noundef nonnull %20, ptr noundef %.1, i32 noundef %25)
  %27 = load ptr, ptr %18, align 8, !tbaa !21
  %28 = getelementptr inbounds nuw i8, ptr %27, i64 8
  %29 = load ptr, ptr %5, align 8, !tbaa !29
  %30 = ptrtoint ptr %29 to i64
  %31 = sub i64 %30, %22
  %32 = ashr exact i64 %31, 1
  %33 = getelementptr inbounds [16 x i16], ptr %28, i64 0, i64 %32
  store i16 0, ptr %33, align 2, !tbaa !26
  %34 = getelementptr inbounds nuw i8, ptr %27, i64 40
  %35 = ptrtoint ptr %spec.select22 to i64
  %36 = sub i64 %35, %30
  %37 = lshr exact i64 %36, 1
  %38 = trunc i64 %37 to i32
  %39 = tail call ptr @u_strncpy_77(ptr noundef nonnull %34, ptr noundef %29, i32 noundef %38)
  %40 = load ptr, ptr %18, align 8, !tbaa !21
  %41 = getelementptr inbounds nuw i8, ptr %40, i64 40
  %42 = load ptr, ptr %5, align 8, !tbaa !29
  %43 = ptrtoint ptr %42 to i64
  %44 = sub i64 %35, %43
  %45 = ashr exact i64 %44, 1
  %46 = getelementptr inbounds [16 x i16], ptr %41, i64 0, i64 %45
  store i16 0, ptr %46, align 2, !tbaa !26
  %47 = load ptr, ptr %0, align 8, !tbaa !27
  %48 = ptrtoint ptr %47 to i64
  %49 = sub i64 %43, %48
  %50 = lshr exact i64 %49, 1
  %51 = trunc i64 %50 to i32
  %52 = getelementptr inbounds nuw i8, ptr %40, i64 4
  store i32 %51, ptr %52, align 4, !tbaa !25
  tail call void @uprv_free_77(ptr noundef %47)
  %53 = getelementptr inbounds nuw i8, ptr %0, i64 40
  tail call void @llvm.memset.p0.i64(ptr noundef nonnull align 8 dereferenceable(24) %0, i8 0, i64 24, i1 false)
  %54 = load ptr, ptr %53, align 8, !tbaa !12
  %55 = load i32, ptr %54, align 4, !tbaa !19
  %56 = icmp sgt i32 %55, 0
  br i1 %56, label %58, label %57

57:                                               ; preds = %13
  store i32 9, ptr %54, align 4, !tbaa !19
  br label %58

58:                                               ; preds = %13, %57, %2
  ret void
}